Certificate:
    Data:
        Version: 1 (0x0)
        Serial Number:
            23:50:79:80:c4:c7:a9:29:ef:e7:07:ac:4a:ae:40:9f:af:2f:00:c2
        Signature Algorithm: sha256WithRSAEncryption
        Issuer: CN = my CA, ST = some state, C = US, emailAddress = root@somename.somewhere.com, O = mycompany
        Validity
            Not Before: Nov 11 09:45:24 2020 GMT
            Not After : Dec 11 09:45:24 2020 GMT
        Subject: CN = my CA, ST = some state, C = US, emailAddress = root@somename.somewhere.com, O = mycompany
        Subject Public Key Info:
            Public Key Algorithm: rsaEncryption
                RSA Public-Key: (1024 bit)
                Modulus:
                    00:b5:bb:42:1d:48:77:1d:c6:75:0d:e9:b7:40:15:
                    ed:57:98:71:34:1e:6c:16:25:45:84:07:e0:b5:1b:
                    71:f2:04:94:8a:e5:c6:77:69:b5:1e:57:fc:2e:98:
                    e2:f7:34:76:32:07:3c:9b:dd:70:44:90:4e:ed:de:
                    17:d4:ee:1d:ca:e9:52:eb:3e:b1:19:f0:20:83:9c:
                    39:93:dd:cb:20:6e:5e:f1:0f:26:10:96:2a:7f:8b:
                    96:05:84:50:71:22:60:48:87:26:d4:7c:50:d4:0f:
                    4c:c9:c2:92:60:2e:dd:cc:23:92:ca:92:cb:6a:ec:
                    26:34:34:4d:aa:1b:05:d5:6f
                Exponent: 65537 (0x10001)
    Signature Algorithm: sha256WithRSAEncryption
         6b:65:13:12:9b:2e:e8:47:1a:6a:52:87:31:67:c0:5b:df:88:
         11:f7:7c:6a:49:62:b9:65:5d:16:2d:ab:2b:ef:b8:f0:cd:53:
         8e:de:28:c7:b1:2e:ae:42:3d:96:08:e5:49:53:b3:38:45:56:
         99:8f:d3:a4:77:0b:33:c9:e1:40:e8:1f:e5:aa:7c:73:a0:97:
         0b:13:5c:22:be:ac:ae:6b:13:60:86:56:74:2b:91:db:f2:c3:
         08:45:eb:cb:1a:fa:7b:86:2f:69:f8:b1:87:57:bd:54:80:b2:
         b4:c2:f4:37:8f:19:ef:42:7a:85:50:cb:19:ab:cb:0a:ec:7d:
         2c:74
-----BEGIN CERTIFICATE-----
MIICZjCCAc8CFCNQeYDEx6kp7+cHrEquQJ+vLwDCMA0GCSqGSIb3DQEBCwUAMHIx
DjAMBgNVBAMTBW15IENBMRMwEQYDVQQIEwpzb21lIHN0YXRlMQswCQYDVQQGEwJV
UzEqMCgGCSqGSIb3DQEJARYbcm9vdEBzb21lbmFtZS5zb21ld2hlcmUuY29tMRIw
EAYDVQQKEwlteWNvbXBhbnkwHhcNMjAxMTExMDk0NTI0WhcNMjAxMjExMDk0NTI0
WjByMQ4wDAYDVQQDEwVteSBDQTETMBEGA1UECBMKc29tZSBzdGF0ZTELMAkGA1UE
BhMCVVMxKjAoBgkqhkiG9w0BCQEWG3Jvb3RAc29tZW5hbWUuc29tZXdoZXJlLmNv
bTESMBAGA1UEChMJbXljb21wYW55MIGfMA0GCSqGSIb3DQEBAQUAA4GNADCBiQKB
gQC1u0IdSHcdxnUN6bdAFe1XmHE0HmwWJUWEB+C1G3HyBJSK5cZ3abUeV/wumOL3
NHYyBzyb3XBEkE7t3hfU7h3K6VLrPrEZ8CCDnDmT3csgbl7xDyYQlip/i5YFhFBx
ImBIhybUfFDUD0zJwpJgLt3MI5LKkstq7CY0NE2qGwXVbwIDAQABMA0GCSqGSIb3
DQEBCwUAA4GBAGtlExKbLuhHGmpShzFnwFvfiBH3fGpJYrllXRYtqyvvuPDNU47e
KMexLq5CPZYI5UlTszhFVpmP06R3CzPJ4UDoH+WqfHOglwsTXCK+rK5rE2CGVnQr
kdvywwhF68sa+nuGL2n4sYdXvVSAsrTC9DePGe9CeoVQyxmrywrsfSx0
-----END CERTIFICATE-----
